(lp0
S'poi'
p1
aS'salary'
p2
aS'to_messages'
p3
aS'total_payments'
p4
aS'exercised_stock_options'
p5
aS'bonus'
p6
aS'restricted_stock'
p7
aS'shared_receipt_with_poi'
p8
aS'total_stock_value'
p9
aS'expenses'
p10
aS'from_messages'
p11
aS'other'
p12
aS'from_this_person_to_poi'
p13
aS'from_poi_to_this_person'
p14
aS'total_assets'
p15
aS'fraction_of_messages_to_pois'
p16
aS'fraction_of_messages_from_pois'
p17
a.